; ModuleID = '4/1650.cpp'
source_filename = "4/1650.cpp"
target datalayout = "e-m:e-p270:32:32-p271:32:32-p272:64:64-i64:64-f80:128-n8:16:32:64-S128"
target triple = "x86_64-pc-linux-gnu"

%"class.std::ios_base::Init" = type { i8 }
%"class.std::basic_istream" = type { i32 (...)**, i64, %"class.std::basic_ios" }
%"class.std::basic_ios" = type { %"class.std::ios_base", %"class.std::basic_ostream"*, i8, i8, %"class.std::basic_streambuf"*, %"class.std::ctype"*, %"class.std::num_put"*, %"class.std::num_get"* }
%"class.std::ios_base" = type { i32 (...)**, i64, i64, i32, i32, i32, %"struct.std::ios_base::_Callback_list"*, %"struct.std::ios_base::_Words", [8 x %"struct.std::ios_base::_Words"], i32, %"struct.std::ios_base::_Words"*, %"class.std::locale" }
%"struct.std::ios_base::_Callback_list" = type { %"struct.std::ios_base::_Callback_list"*, void (i32, %"class.std::ios_base"*, i32)*, i32, i32 }
%"struct.std::ios_base::_Words" = type { i8*, i64 }
%"class.std::locale" = type { %"class.std::locale::_Impl"* }
%"class.std::locale::_Impl" = type { i32, %"class.std::locale::facet"**, i64, %"class.std::locale::facet"**, i8** }
%"class.std::locale::facet" = type <{ i32 (...)**, i32, [4 x i8] }>
%"class.std::basic_ostream" = type { i32 (...)**, %"class.std::basic_ios" }
%"class.std::basic_streambuf" = type { i32 (...)**, i8*, i8*, i8*, i8*, i8*, i8*, %"class.std::locale" }
%"class.std::ctype" = type <{ %"class.std::locale::facet.base", [4 x i8], %struct.__locale_struct*, i8, [7 x i8], i32*, i32*, i16*, i8, [256 x i8], [256 x i8], i8, [6 x i8] }>
%"class.std::locale::facet.base" = type <{ i32 (...)**, i32 }>
%struct.__locale_struct = type { [13 x %struct.__locale_data*], i16*, i32*, i32*, [13 x i8*] }
%struct.__locale_data = type opaque
%"class.std::num_put" = type { %"class.std::locale::facet.base", [4 x i8] }
%"class.std::num_get" = type { %"class.std::locale::facet.base", [4 x i8] }

@_ZStL8__ioinit = internal global %"class.std::ios_base::Init" zeroinitializer, align 1
@__dso_handle = external hidden global i8
@_ZSt3cin = external dso_local global %"class.std::basic_istream", align 8
@_ZSt4cout = external dso_local global %"class.std::basic_ostream", align 8
@llvm.global_ctors = appending global [1 x { i32, void ()*, i8* }] [{ i32, void ()*, i8* } { i32 65535, void ()* @_GLOBAL__sub_I_1650.cpp, i8* null }]

; Function Attrs: noinline uwtable
define internal void @__cxx_global_var_init() #0 section ".text.startup" {
  call void @_ZNSt8ios_base4InitC1Ev(%"class.std::ios_base::Init"* @_ZStL8__ioinit)
  %1 = call i32 @__cxa_atexit(void (i8*)* bitcast (void (%"class.std::ios_base::Init"*)* @_ZNSt8ios_base4InitD1Ev to void (i8*)*), i8* getelementptr inbounds (%"class.std::ios_base::Init", %"class.std::ios_base::Init"* @_ZStL8__ioinit, i32 0, i32 0), i8* @__dso_handle) #3
  ret void
}

declare dso_local void @_ZNSt8ios_base4InitC1Ev(%"class.std::ios_base::Init"*) unnamed_addr #1

; Function Attrs: nounwind
declare dso_local void @_ZNSt8ios_base4InitD1Ev(%"class.std::ios_base::Init"*) unnamed_addr #2

; Function Attrs: nounwind
declare dso_local i32 @__cxa_atexit(void (i8*)*, i8*, i8*) #3

; Function Attrs: noinline norecurse uwtable
define dso_local i32 @main() #4 {
  %1 = alloca i32, align 4
  %2 = alloca [101 x [101 x i32]], align 16
  %3 = alloca i32, align 4
  %4 = alloca i32, align 4
  %5 = alloca i32, align 4
  %6 = alloca i32, align 4
  %7 = alloca i32, align 4
  %8 = alloca i32, align 4
  store i32 0, i32* %1, align 4
  %9 = bitcast [101 x [101 x i32]]* %2 to i8*
  call void @llvm.memset.p0i8.i64(i8* align 16 %9, i8 0, i64 40804, i1 false)
  store i32 0, i32* %7, align 4
  store i32 0, i32* %8, align 4
  %10 = call dereferenceable(280) %"class.std::basic_istream"* @_ZNSirsERi(%"class.std::basic_istream"* @_ZSt3cin, i32* dereferenceable(4) %3)
  %11 = call dereferenceable(280) %"class.std::basic_istream"* @_ZNSirsERi(%"class.std::basic_istream"* %10, i32* dereferenceable(4) %4)
  %12 = load i32, i32* %4, align 4
  %13 = icmp eq i32 %12, 1
  br i1 %13, label %14, label %15

14:                                               ; preds = %0
  store i32 1, i32* %8, align 4
  br label %15

15:                                               ; preds = %14, %0
  store i32 1, i32* %5, align 4
  br label %16

16:                                               ; preds = %37, %15
  %17 = load i32, i32* %5, align 4
  %18 = load i32, i32* %3, align 4
  %19 = icmp sle i32 %17, %18
  br i1 %19, label %20, label %40

20:                                               ; preds = %16
  store i32 1, i32* %6, align 4
  br label %21

21:                                               ; preds = %33, %20
  %22 = load i32, i32* %6, align 4
  %23 = load i32, i32* %4, align 4
  %24 = icmp sle i32 %22, %23
  br i1 %24, label %25, label %36

25:                                               ; preds = %21
  %26 = load i32, i32* %5, align 4
  %27 = sext i32 %26 to i64
  %28 = getelementptr inbounds [101 x [101 x i32]], [101 x [101 x i32]]* %2, i64 0, i64 %27
  %29 = load i32, i32* %6, align 4
  %30 = sext i32 %29 to i64
  %31 = getelementptr inbounds [101 x i32], [101 x i32]* %28, i64 0, i64 %30
  %32 = call dereferenceable(280) %"class.std::basic_istream"* @_ZNSirsERi(%"class.std::basic_istream"* @_ZSt3cin, i32* dereferenceable(4) %31)
  br label %33

33:                                               ; preds = %25
  %34 = load i32, i32* %6, align 4
  %35 = add nsw i32 %34, 1
  store i32 %35, i32* %6, align 4
  br label %21

36:                                               ; preds = %21
  br label %37

37:                                               ; preds = %36
  %38 = load i32, i32* %5, align 4
  %39 = add nsw i32 %38, 1
  store i32 %39, i32* %5, align 4
  br label %16

40:                                               ; preds = %16
  store i32 1, i32* %5, align 4
  store i32 1, i32* %6, align 4
  br label %41

41:                                               ; preds = %100, %40
  %42 = load i32, i32* %7, align 4
  %43 = load i32, i32* %3, align 4
  %44 = load i32, i32* %4, align 4
  %45 = mul nsw i32 %43, %44
  %46 = icmp slt i32 %42, %45
  br i1 %46, label %47, label %101

47:                                               ; preds = %41
  %48 = load i32, i32* %5, align 4
  %49 = sext i32 %48 to i64
  %50 = getelementptr inbounds [101 x [101 x i32]], [101 x [101 x i32]]* %2, i64 0, i64 %49
  %51 = load i32, i32* %6, align 4
  %52 = sext i32 %51 to i64
  %53 = getelementptr inbounds [101 x i32], [101 x i32]* %50, i64 0, i64 %52
  %54 = load i32, i32* %53, align 4
  %55 = call dereferenceable(272) %"class.std::basic_ostream"* @_ZNSolsEi(%"class.std::basic_ostream"* @_ZSt4cout, i32 %54)
  %56 = call dereferenceable(272) %"class.std::basic_ostream"* @_ZNSolsEPFRSoS_E(%"class.std::basic_ostream"* %55, %"class.std::basic_ostream"* (%"class.std::basic_ostream"*)* @_ZSt4endlIcSt11char_traitsIcEERSt13basic_ostreamIT_T0_ES6_)
  %57 = load i32, i32* %7, align 4
  %58 = add nsw i32 %57, 1
  store i32 %58, i32* %7, align 4
  %59 = load i32, i32* %6, align 4
  %60 = icmp eq i32 %59, 1
  br i1 %60, label %61, label %65

61:                                               ; preds = %47
  %62 = load i32, i32* %5, align 4
  %63 = load i32, i32* %3, align 4
  %64 = icmp ne i32 %62, %63
  br i1 %64, label %79, label %65

65:                                               ; preds = %61, %47
  %66 = load i32, i32* %6, align 4
  %67 = icmp ne i32 %66, 1
  br i1 %67, label %68, label %72

68:                                               ; preds = %65
  %69 = load i32, i32* %5, align 4
  %70 = load i32, i32* %3, align 4
  %71 = icmp eq i32 %69, %70
  br i1 %71, label %79, label %72

72:                                               ; preds = %68, %65
  %73 = load i32, i32* %6, align 4
  %74 = icmp eq i32 %73, 1
  br i1 %74, label %75, label %95

75:                                               ; preds = %72
  %76 = load i32, i32* %5, align 4
  %77 = load i32, i32* %3, align 4
  %78 = icmp eq i32 %76, %77
  br i1 %78, label %79, label %95

79:                                               ; preds = %75, %68, %61
  %80 = load i32, i32* %5, align 4
  %81 = load i32, i32* %6, align 4
  %82 = add nsw i32 %80, %81
  %83 = load i32, i32* %4, align 4
  %84 = icmp slt i32 %82, %83
  br i1 %84, label %85, label %89

85:                                               ; preds = %79
  %86 = load i32, i32* %5, align 4
  %87 = load i32, i32* %6, align 4
  %88 = add nsw i32 %86, %87
  store i32 %88, i32* %6, align 4
  store i32 1, i32* %5, align 4
  br label %94

89:                                               ; preds = %79
  %90 = load i32, i32* %8, align 4
  %91 = add nsw i32 %90, 1
  store i32 %91, i32* %8, align 4
  %92 = load i32, i32* %8, align 4
  store i32 %92, i32* %5, align 4
  %93 = load i32, i32* %4, align 4
  store i32 %93, i32* %6, align 4
  br label %94

94:                                               ; preds = %89, %85
  br label %100

95:                                               ; preds = %75, %72
  %96 = load i32, i32* %5, align 4
  %97 = add nsw i32 %96, 1
  store i32 %97, i32* %5, align 4
  %98 = load i32, i32* %6, align 4
  %99 = add nsw i32 %98, -1
  store i32 %99, i32* %6, align 4
  br label %100

100:                                              ; preds = %95, %94
  br label %41

101:                                              ; preds = %41
  ret i32 0
}

; Function Attrs: argmemonly nounwind willreturn
declare void @llvm.memset.p0i8.i64(i8* nocapture writeonly, i8, i64, i1 immarg) #5

declare dso_local dereferenceable(280) %"class.std::basic_istream"* @_ZNSirsERi(%"class.std::basic_istream"*, i32* dereferenceable(4)) #1

declare dso_local dereferenceable(272) %"class.std::basic_ostream"* @_ZNSolsEi(%"class.std::basic_ostream"*, i32) #1

declare dso_local dereferenceable(272) %"class.std::basic_ostream"* @_ZNSolsEPFRSoS_E(%"class.std::basic_ostream"*, %"class.std::basic_ostream"* (%"class.std::basic_ostream"*)*) #1

declare dso_local dereferenceable(272) %"class.std::basic_ostream"* @_ZSt4endlIcSt11char_traitsIcEERSt13basic_ostreamIT_T0_ES6_(%"class.std::basic_ostream"* dereferenceable(272)) #1

; Function Attrs: noinline uwtable
define internal void @_GLOBAL__sub_I_1650.cpp() #0 section ".text.startup" {
  call void @__cxx_global_var_init()
  ret void
}


!llvm.module.flags = !{!0}
!llvm.ident = !{!1}

!0 = !{i32 1, !"wchar_size", i32 4}
!1 = !{!"clang version 10.0.0-4ubuntu1 "}
